target datalayout = "e-m:e-p270:32:32-p271:32:32-p272:64:64-i64:64-i128:128-f80:128-n8:16:32:64-S128"
target triple = "x86_64-pc-linux-gnu"

%struct.asn1_string_st = type { i32, i32, ptr, i64 }

@tag2nbyte = internal constant [31 x i8] c"\FF\FF\FF\FF\FF\FF\FF\FF\FF\FF\FF\FF\00\FF\FF\FF\FF\FF\01\01\01\FF\01\01\01\FF\01\FF\04\FF\02", align 16

; Function Attrs: nounwind uwtable
define i32 @ASN1_STRING_to_UTF8(ptr noundef %0, ptr noundef %1) #0 {
  %3 = alloca i32, align 4
  %4 = alloca ptr, align 8
  %5 = alloca ptr, align 8
  %6 = alloca %struct.asn1_string_st, align 8
  %7 = alloca ptr, align 8
  %8 = alloca i32, align 4
  %9 = alloca i32, align 4
  %10 = alloca i32, align 4
  %11 = alloca i32, align 4
  store ptr %0, ptr %4, align 8, !tbaa !34
  store ptr %1, ptr %5, align 8, !tbaa !21
  call void @llvm.lifetime.start.p0(i64 24, ptr %6) #4
  call void @llvm.lifetime.start.p0(i64 8, ptr %7) #4
  store ptr %6, ptr %7, align 8, !tbaa !21
  call void @llvm.lifetime.start.p0(i64 4, ptr %8) #4
  call void @llvm.lifetime.start.p0(i64 4, ptr %9) #4
  call void @llvm.lifetime.start.p0(i64 4, ptr %10) #4
  %12 = load ptr, ptr %5, align 8, !tbaa !21
  %13 = icmp ne ptr %12, null
  br i1 %13, label %15, label %14

14:                                               ; preds = %2
  store i32 -1, ptr %3, align 4
  store i32 1, ptr %11, align 4
  br label %58

15:                                               ; preds = %2
  %16 = load ptr, ptr %5, align 8, !tbaa !21
  %17 = getelementptr inbounds nuw %struct.asn1_string_st, ptr %16, i32 0, i32 1
  %18 = load i32, ptr %17, align 4, !tbaa !30
  store i32 %18, ptr %9, align 4, !tbaa !10
  %19 = load i32, ptr %9, align 4, !tbaa !10
  %20 = icmp slt i32 %19, 0
  br i1 %20, label %24, label %21

21:                                               ; preds = %15
  %22 = load i32, ptr %9, align 4, !tbaa !10
  %23 = icmp sgt i32 %22, 30
  br i1 %23, label %24, label %25

24:                                               ; preds = %21, %15
  store i32 -1, ptr %3, align 4
  store i32 1, ptr %11, align 4
  br label %58

25:                                               ; preds = %21
  %26 = load i32, ptr %9, align 4, !tbaa !10
  %27 = sext i32 %26 to i64
  %28 = getelementptr inbounds [31 x i8], ptr @tag2nbyte, i64 0, i64 %27
  %29 = load i8, ptr %28, align 1, !tbaa !27
  %30 = sext i8 %29 to i32
  store i32 %30, ptr %8, align 4, !tbaa !10
  %31 = load i32, ptr %8, align 4, !tbaa !10
  %32 = icmp eq i32 %31, -1
  br i1 %32, label %33, label %34

33:                                               ; preds = %25
  store i32 -1, ptr %3, align 4
  store i32 1, ptr %11, align 4
  br label %58

34:                                               ; preds = %25
  %35 = load i32, ptr %8, align 4, !tbaa !10
  %36 = or i32 %35, 4096
  store i32 %36, ptr %8, align 4, !tbaa !10
  %37 = getelementptr inbounds nuw %struct.asn1_string_st, ptr %6, i32 0, i32 2
  store ptr null, ptr %37, align 8, !tbaa !32
  %38 = getelementptr inbounds nuw %struct.asn1_string_st, ptr %6, i32 0, i32 0
  store i32 0, ptr %38, align 8, !tbaa !33
  %39 = getelementptr inbounds nuw %struct.asn1_string_st, ptr %6, i32 0, i32 3
  store i64 0, ptr %39, align 8, !tbaa !36
  %40 = load ptr, ptr %5, align 8, !tbaa !21
  %41 = getelementptr inbounds nuw %struct.asn1_string_st, ptr %40, i32 0, i32 2
  %42 = load ptr, ptr %41, align 8, !tbaa !32
  %43 = load ptr, ptr %5, align 8, !tbaa !21
  %44 = getelementptr inbounds nuw %struct.asn1_string_st, ptr %43, i32 0, i32 0
  %45 = load i32, ptr %44, align 8, !tbaa !33
  %46 = load i32, ptr %8, align 4, !tbaa !10
  %47 = call i32 @ASN1_mbstring_copy(ptr noundef %7, ptr noundef %42, i32 noundef %45, i32 noundef %46, i64 noundef 8192)
  store i32 %47, ptr %10, align 4, !tbaa !10
  %48 = load i32, ptr %10, align 4, !tbaa !10
  %49 = icmp slt i32 %48, 0
  br i1 %49, label %50, label %52

50:                                               ; preds = %34
  %51 = load i32, ptr %10, align 4, !tbaa !10
  store i32 %51, ptr %3, align 4
  store i32 1, ptr %11, align 4
  br label %58

52:                                               ; preds = %34
  %53 = getelementptr inbounds nuw %struct.asn1_string_st, ptr %6, i32 0, i32 2
  %54 = load ptr, ptr %53, align 8, !tbaa !32
  %55 = load ptr, ptr %4, align 8, !tbaa !34
  store ptr %54, ptr %55, align 8, !tbaa !15
  %56 = getelementptr inbounds nuw %struct.asn1_string_st, ptr %6, i32 0, i32 0
  %57 = load i32, ptr %56, align 8, !tbaa !33
  store i32 %57, ptr %3, align 4
  store i32 1, ptr %11, align 4
  br label %58

58:                                               ; preds = %52, %50, %33, %24, %14
  call void @llvm.lifetime.end.p0(i64 4, ptr %10) #4
  call void @llvm.lifetime.end.p0(i64 4, ptr %9) #4
  call void @llvm.lifetime.end.p0(i64 4, ptr %8) #4
  call void @llvm.lifetime.end.p0(i64 8, ptr %7) #4
  call void @llvm.lifetime.end.p0(i64 24, ptr %6) #4
  %59 = load i32, ptr %3, align 4
  ret i32 %59
}