; Function Attrs: nounwind uwtable
define i32 @ASN1_STRING_to_UTF8(ptr noundef writeonly captures(none) %0, ptr noundef readonly captures(address_is_null) %1) local_unnamed_addr #0 {
  %3 = alloca %struct.asn1_string_st, align 8
  %4 = alloca ptr, align 8
  call void @llvm.lifetime.start.p0(i64 24, ptr nonnull %3) #8
  call void @llvm.lifetime.start.p0(i64 8, ptr nonnull %4) #8
  store ptr %3, ptr %4, align 8, !tbaa !22
  %.not = icmp eq ptr %1, null
  br i1 %.not, label %26, label %5

5:                                                ; preds = %2
  %6 = getelementptr inbounds nuw i8, ptr %1, i64 4
  %7 = load i32, ptr %6, align 4, !tbaa !10
  %or.cond = icmp ugt i32 %7, 30
  br i1 %or.cond, label %26, label %8

8:                                                ; preds = %5
  %9 = zext nneg i32 %7 to i64
  %10 = shl nuw nsw i64 1, %9
  %11 = and i64 %10, 706998271
  %.not18 = icmp eq i64 %11, 0
  br i1 %.not18, label %12, label %26

12:                                               ; preds = %8
  %13 = getelementptr inbounds nuw [31 x i8], ptr @tag2nbyte, i64 0, i64 %9
  %14 = load i8, ptr %13, align 1, !tbaa !7
  %15 = sext i8 %14 to i32
  %16 = or i32 %15, 4096
  %17 = getelementptr inbounds nuw i8, ptr %3, i64 8
  store i32 0, ptr %3, align 8, !tbaa !17
  %18 = getelementptr inbounds nuw i8, ptr %1, i64 8
  call void @llvm.memset.p0.i64(ptr noundef nonnull align 8 dereferenceable(16) %17, i8 0, i64 16, i1 false)
  %19 = load ptr, ptr %18, align 8, !tbaa !16
  %20 = load i32, ptr %1, align 8, !tbaa !17
  %21 = call i32 @ASN1_mbstring_copy(ptr noundef nonnull %4, ptr noundef %19, i32 noundef %20, i32 noundef %16, i64 noundef 8192) #8
  %22 = icmp slt i32 %21, 0
  br i1 %22, label %26, label %23

23:                                               ; preds = %12
  %24 = load ptr, ptr %17, align 8, !tbaa !16
  store ptr %24, ptr %0, align 8, !tbaa !21
  %25 = load i32, ptr %3, align 8, !tbaa !17
  br label %26

26:                                               ; preds = %12, %8, %5, %2, %23
  %.0 = phi i32 [ %25, %23 ], [ -1, %2 ], [ -1, %5 ], [ -1, %8 ], [ %21, %12 ]
  call void @llvm.lifetime.end.p0(i64 8, ptr nonnull %4) #8
  call void @llvm.lifetime.end.p0(i64 24, ptr nonnull %3) #8
  ret i32 %.0
}